; Function Attrs: nofree norecurse nosync nounwind memory(argmem: readwrite) uwtable
define void @lv_cache_entry_release_data(ptr noundef captures(address_is_null) %0, ptr noundef readnone captures(none) %1) local_unnamed_addr #1 {
  %.not = icmp eq ptr %0, null
  br i1 %.not, label %.preheader, label %lv_cache_entry_get_ref.exit

.preheader:                                       ; preds = %2, %.preheader
  br label %.preheader

lv_cache_entry_get_ref.exit:                      ; preds = %2
  %3 = getelementptr inbounds nuw i8, ptr %0, i64 8
  %4 = load i32, ptr %3, align 8, !tbaa !3
  %5 = icmp eq i32 %4, 0
  br i1 %5, label %7, label %lv_cache_entry_dec_ref.exit

lv_cache_entry_dec_ref.exit:                      ; preds = %lv_cache_entry_get_ref.exit
  %6 = tail call i32 @llvm.smax.i32(i32 %4, i32 1)
  %spec.select.i = add nsw i32 %6, -1
  store i32 %spec.select.i, ptr %3, align 8, !tbaa !3
  br label %7

7:                                                ; preds = %lv_cache_entry_get_ref.exit, %lv_cache_entry_dec_ref.exit
  ret void
}